	.file	"Visitor.cpp"
	.text
.Ltext_begin:
	.data
	.file	1 "Visitor.cpp"
	.file	2 "/usr/bin/../lib/gcc/x86_64-linux-gnu/4.8/../../../../include/x86_64-linux-gnu/c++/4.8/bits/c++config.h"
	.file	3 "/usr/bin/../lib/gcc/x86_64-linux-gnu/4.8/../../../../include/c++/4.8/bits/ios_base.h"
	.file	4 "/usr/bin/../lib/gcc/x86_64-linux-gnu/4.8/../../../../include/c++/4.8/iostream"
	.file	5 "/usr/bin/../lib/gcc/x86_64-linux-gnu/4.8/../../../../include/x86_64-linux-gnu/c++/4.8/bits/gthr-default.h"
	.file	6 "./Visitor.h"
	.file	7 "./AST.h"
	.file	8 "/usr/bin/../lib/gcc/x86_64-linux-gnu/4.8/../../../../include/c++/4.8/bits/cpp_type_traits.h"
	.file	9 "/usr/bin/../lib/gcc/x86_64-linux-gnu/4.8/../../../../include/c++/4.8/ext/new_allocator.h"
	.file	10 "/usr/bin/../lib/gcc/x86_64-linux-gnu/4.8/../../../../include/c++/4.8/bits/allocator.h"
	.file	11 "/usr/bin/../lib/gcc/x86_64-linux-gnu/4.8/../../../../include/c++/4.8/bits/basic_string.h"
	.file	12 "/usr/bin/../lib/gcc/x86_64-linux-gnu/4.8/../../../../include/c++/4.8/bits/stl_iterator.h"
	.file	13 "/usr/bin/../lib/gcc/x86_64-linux-gnu/4.8/../../../../include/c++/4.8/bits/stl_iterator_base_types.h"
	.file	14 "/usr/bin/../lib/gcc/x86_64-linux-gnu/4.8/../../../../include/c++/4.8/bits/basic_string.tcc"
	.file	15 "/usr/bin/../lib/gcc/x86_64-linux-gnu/4.8/../../../../include/c++/4.8/bits/char_traits.h"
	.file	16 "/usr/bin/../lib/gcc/x86_64-linux-gnu/4.8/../../../../include/c++/4.8/bits/stl_list.h"
	.file	17 "/usr/bin/../lib/gcc/x86_64-linux-gnu/4.8/../../../../include/c++/4.8/bits/stl_iterator_base_funcs.h"
	.file	18 "/usr/bin/../lib/gcc/x86_64-linux-gnu/4.8/../../../../include/c++/4.8/ext/atomicity.h"
	.file	19 "/usr/bin/../lib/gcc/x86_64-linux-gnu/4.8/../../../../include/c++/4.8/debug/debug.h"
	.text
	.globl	_ZN7VisitorD0Ev
	.align	16, 0x90
	.type	_ZN7VisitorD0Ev,@function
_ZN7VisitorD0Ev:                        # @_ZN7VisitorD0Ev
	.cfi_startproc
.Lfunc_begin0:
	.loc	1 7 0                   # Visitor.cpp:7:0
# BB#0:
	#DEBUG_VALUE: ~Visitor:this <- RDI
	.loc	1 0 0 prologue_end      # Visitor.cpp:0:0
	jmp	_ZdlPv@PLT              # TAILCALL
.Ltmp0:
.Ltmp1:
	.size	_ZN7VisitorD0Ev, .Ltmp1-_ZN7VisitorD0Ev
.Lfunc_end0:
	.cfi_endproc

	.globl	_ZN7VisitorD2Ev
	.align	16, 0x90
	.type	_ZN7VisitorD2Ev,@function
_ZN7VisitorD2Ev:                        # @_ZN7VisitorD2Ev
	.cfi_startproc
.Lfunc_begin1:
	.loc	1 7 0                   # Visitor.cpp:7:0
# BB#0:
	#DEBUG_VALUE: ~Visitor:this <- RDI
	.loc	1 9 0 prologue_end      # Visitor.cpp:9:0
	ret
.Ltmp2:
.Ltmp3:
	.size	_ZN7VisitorD2Ev, .Ltmp3-_ZN7VisitorD2Ev
.Lfunc_end1:
	.cfi_endproc

	.globl	_ZN7Visitor5visitEP10ASTProgram
	.align	16, 0x90
	.type	_ZN7Visitor5visitEP10ASTProgram,@function
_ZN7Visitor5visitEP10ASTProgram:        # @_ZN7Visitor5visitEP10ASTProgram
	.cfi_startproc
.Lfunc_begin2:
	.loc	1 11 0                  # Visitor.cpp:11:0
# BB#0:
	pushq	%r15
.Ltmp8:
	.cfi_def_cfa_offset 16
	pushq	%r14
.Ltmp9:
	.cfi_def_cfa_offset 24
	pushq	%rbx
.Ltmp10:
	.cfi_def_cfa_offset 32
.Ltmp11:
	.cfi_offset %rbx, -32
.Ltmp12:
	.cfi_offset %r14, -24
.Ltmp13:
	.cfi_offset %r15, -16
	#DEBUG_VALUE: visit:this <- RDI
	#DEBUG_VALUE: visit:aSTProgram <- RSI
	movq	%rsi, %rbx
.Ltmp14:
	#DEBUG_VALUE: visit:aSTProgram <- RBX
	movq	%rdi, %r14
.Ltmp15:
	#DEBUG_VALUE: getMain:this <- RBX
	#DEBUG_VALUE: visit:this <- R14
	.loc	1 12 0 prologue_end     # Visitor.cpp:12:0
	movq	XML_fp@GOTPCREL(%rip), %r15
	movq	(%r15), %rcx
	leaq	.L.str(%rip), %rdi
	movl	$10, %esi
	movl	$1, %edx
	callq	fwrite@PLT
	.loc	7 34 0                  # ./AST.h:34:0
.Ltmp16:
	movq	16(%rbx), %rdi
.Ltmp17:
	#DEBUG_VALUE: visit:aSTMain <- RDI
	.loc	1 16 0                  # Visitor.cpp:16:0
	movq	(%rdi), %rax
	movq	%r14, %rsi
.Ltmp18:
	#DEBUG_VALUE: visit:this <- RSI
	callq	*(%rax)
	.loc	1 18 0                  # Visitor.cpp:18:0
	movq	(%r15), %rcx
	leaq	.L.str1(%rip), %rdi
.Ltmp19:
	movl	$11, %esi
.Ltmp20:
	movl	$1, %edx
	popq	%rbx
.Ltmp21:
	popq	%r14
	popq	%r15
	jmp	fwrite@PLT              # TAILCALL
.Ltmp22:
.Ltmp23:
	.size	_ZN7Visitor5visitEP10ASTProgram, .Ltmp23-_ZN7Visitor5visitEP10ASTProgram
.Lfunc_end2:
	.cfi_endproc

	.globl	_ZN7Visitor5visitEP7ASTnode
	.align	16, 0x90
	.type	_ZN7Visitor5visitEP7ASTnode,@function
_ZN7Visitor5visitEP7ASTnode:            # @_ZN7Visitor5visitEP7ASTnode
	.cfi_startproc
.Lfunc_begin3:
	.loc	1 21 0                  # Visitor.cpp:21:0
# BB#0:
	pushq	%r15
.Ltmp28:
	.cfi_def_cfa_offset 16
	pushq	%r14
.Ltmp29:
	.cfi_def_cfa_offset 24
	pushq	%rbx
.Ltmp30:
	.cfi_def_cfa_offset 32
.Ltmp31:
	.cfi_offset %rbx, -32
.Ltmp32:
	.cfi_offset %r14, -24
.Ltmp33:
	.cfi_offset %r15, -16
	#DEBUG_VALUE: visit:this <- RDI
	#DEBUG_VALUE: visit:aSTnode <- RSI
	movq	%rsi, %rbx
.Ltmp34:
	#DEBUG_VALUE: visit:aSTnode <- RBX
	movq	%rdi, %r14
.Ltmp35:
	#DEBUG_VALUE: visit:this <- R14
	.loc	1 22 0 prologue_end     # Visitor.cpp:22:0
	movq	XML_fp@GOTPCREL(%rip), %r15
	movq	(%r15), %rcx
	leaq	.L.str2(%rip), %rdi
	movl	$7, %esi
	movl	$1, %edx
	callq	fwrite@PLT
	.loc	1 24 0                  # Visitor.cpp:24:0
	movq	(%rbx), %rax
	movq	%rbx, %rdi
	movq	%r14, %rsi
.Ltmp36:
	#DEBUG_VALUE: visit:this <- RSI
	callq	*(%rax)
	.loc	1 26 0                  # Visitor.cpp:26:0
	movq	(%r15), %rcx
	leaq	.L.str3(%rip), %rdi
	movl	$8, %esi
.Ltmp37:
	movl	$1, %edx
	popq	%rbx
.Ltmp38:
	popq	%r14
	popq	%r15
	jmp	fwrite@PLT              # TAILCALL
.Ltmp39:
.Ltmp40:
	.size	_ZN7Visitor5visitEP7ASTnode, .Ltmp40-_ZN7Visitor5visitEP7ASTnode
.Lfunc_end3:
	.cfi_endproc

	.globl	_ZN7Visitor5visitEP20ASTField_Declaration
	.align	16, 0x90
	.type	_ZN7Visitor5visitEP20ASTField_Declaration,@function
_ZN7Visitor5visitEP20ASTField_Declaration: # @_ZN7Visitor5visitEP20ASTField_Declaration
	.cfi_startproc
.Lfunc_begin4:
	.loc	1 29 0                  # Visitor.cpp:29:0
# BB#0:
	pushq	%r15
.Ltmp45:
	.cfi_def_cfa_offset 16
	pushq	%r14
.Ltmp46:
	.cfi_def_cfa_offset 24
	pushq	%rbx
.Ltmp47:
	.cfi_def_cfa_offset 32
.Ltmp48:
	.cfi_offset %rbx, -32
.Ltmp49:
	.cfi_offset %r14, -24
.Ltmp50:
	.cfi_offset %r15, -16
	#DEBUG_VALUE: visit:this <- RDI
	#DEBUG_VALUE: visit:aSTField_Declaration <- RSI
	movq	%rsi, %r15
.Ltmp51:
	#DEBUG_VALUE: visit:aSTField_Declaration <- R15
	movq	%rdi, %r14
.Ltmp52:
	#DEBUG_VALUE: visit:this <- R14
	.loc	1 30 0 prologue_end     # Visitor.cpp:30:0
	movq	24(%r15), %rax
.Ltmp53:
	#DEBUG_VALUE: begin:this <- RAX
	#DEBUG_VALUE: end:this <- RAX
	.loc	16 155 0                # /usr/bin/../lib/gcc/x86_64-linux-gnu/4.8/../../../../include/c++/4.8/bits/stl_list.h:155:0
	movq	(%rax), %rbx
.Ltmp54:
	#DEBUG_VALUE: _List_iterator:__x <- RAX
	cmpq	%rax, %rbx
	je	.LBB4_2
.Ltmp55:
	.align	16, 0x90
.LBB4_1:                                # %.lr.ph
                                        # =>This Inner Loop Header: Depth=1
	#DEBUG_VALUE: visit:this <- R14
	#DEBUG_VALUE: visit:aSTField_Declaration <- R15
	.loc	1 32 0                  # Visitor.cpp:32:0
	movq	16(%rbx), %rdi
	movq	(%rdi), %rax
	movq	%r14, %rsi
	callq	*(%rax)
.Ltmp56:
	.loc	16 155 0                # /usr/bin/../lib/gcc/x86_64-linux-gnu/4.8/../../../../include/c++/4.8/bits/stl_list.h:155:0
	movq	(%rbx), %rbx
	cmpq	24(%r15), %rbx
.Ltmp57:
	.loc	1 31 0                  # Visitor.cpp:31:0
	jne	.LBB4_1
.Ltmp58:
.LBB4_2:                                # %._crit_edge
	.loc	1 34 0                  # Visitor.cpp:34:0
	popq	%rbx
	popq	%r14
	popq	%r15
	ret
.Ltmp59:
.Ltmp60:
	.size	_ZN7Visitor5visitEP20ASTField_Declaration, .Ltmp60-_ZN7Visitor5visitEP20ASTField_Declaration
.Lfunc_end4:
	.cfi_endproc

	.globl	_ZN7Visitor5visitEP11ASTLocation
	.align	16, 0x90
	.type	_ZN7Visitor5visitEP11ASTLocation,@function
_ZN7Visitor5visitEP11ASTLocation:       # @_ZN7Visitor5visitEP11ASTLocation
	.cfi_startproc
.Lfunc_begin5:
	.loc	1 37 0                  # Visitor.cpp:37:0
# BB#0:
	.loc	1 38 0 prologue_end     # Visitor.cpp:38:0
	pushq	%rbx
.Ltmp63:
	.cfi_def_cfa_offset 16
.Ltmp64:
	.cfi_offset %rbx, -16
	#DEBUG_VALUE: visit:this <- RDI
	#DEBUG_VALUE: visit:aSTLocation <- RSI
	movq	XML_fp@GOTPCREL(%rip), %rbx
	movq	(%rbx), %rcx
	leaq	.L.str4(%rip), %rdi
.Ltmp65:
	movl	$11, %esi
.Ltmp66:
	movl	$1, %edx
	callq	fwrite@PLT
	.loc	1 40 0                  # Visitor.cpp:40:0
	movq	(%rbx), %rcx
	leaq	.L.str5(%rip), %rdi
	movl	$12, %esi
	movl	$1, %edx
	popq	%rbx
	jmp	fwrite@PLT              # TAILCALL
.Ltmp67:
.Ltmp68:
	.size	_ZN7Visitor5visitEP11ASTLocation, .Ltmp68-_ZN7Visitor5visitEP11ASTLocation
.Lfunc_end5:
	.cfi_endproc

	.globl	_ZN7Visitor5visitEP15BaseDeclaration
	.align	16, 0x90
	.type	_ZN7Visitor5visitEP15BaseDeclaration,@function
_ZN7Visitor5visitEP15BaseDeclaration:   # @_ZN7Visitor5visitEP15BaseDeclaration
	.cfi_startproc
.Lfunc_begin6:
	.loc	1 43 0                  # Visitor.cpp:43:0
# BB#0:
	#DEBUG_VALUE: visit:this <- RDI
	#DEBUG_VALUE: visit:baseDeclaration <- RSI
	.loc	1 44 0 prologue_end     # Visitor.cpp:44:0
	movq	XML_fp@GOTPCREL(%rip), %rax
	movq	(%rax), %rcx
	leaq	.L.str6(%rip), %rdi
.Ltmp69:
	movl	$18, %esi
.Ltmp70:
	movl	$1, %edx
	jmp	fwrite@PLT              # TAILCALL
.Ltmp71:
.Ltmp72:
	.size	_ZN7Visitor5visitEP15BaseDeclaration, .Ltmp72-_ZN7Visitor5visitEP15BaseDeclaration
.Lfunc_end6:
	.cfi_endproc

	.globl	_ZN7Visitor5visitEP13ASTIdentifier
	.align	16, 0x90
	.type	_ZN7Visitor5visitEP13ASTIdentifier,@function
_ZN7Visitor5visitEP13ASTIdentifier:     # @_ZN7Visitor5visitEP13ASTIdentifier
	.cfi_startproc
.Lfunc_begin7:
	.loc	1 47 0                  # Visitor.cpp:47:0
# BB#0:
	.loc	1 48 0 prologue_end     # Visitor.cpp:48:0
	pushq	%rbx
.Ltmp75:
	.cfi_def_cfa_offset 16
	subq	$16, %rsp
.Ltmp76:
	.cfi_def_cfa_offset 32
.Ltmp77:
	.cfi_offset %rbx, -16
	#DEBUG_VALUE: visit:this <- RDI
	#DEBUG_VALUE: visit:aSTIdentifier <- RSI
	movq	XML_fp@GOTPCREL(%rip), %rax
	movq	(%rax), %rbx
	leaq	(%rsp), %rdi
.Ltmp78:
	#DEBUG_VALUE: c_str:this <- RDI
	callq	_ZN13ASTIdentifier5getIdEv@PLT
	.loc	11 293 0                # /usr/bin/../lib/gcc/x86_64-linux-gnu/4.8/../../../../include/c++/4.8/bits/basic_string.h:293:0
.Ltmp79:
	movq	(%rsp), %rdx
.Ltmp80:
	.loc	1 48 0                  # Visitor.cpp:48:0
	leaq	.L.str7(%rip), %rsi
.Ltmp81:
	xorl	%eax, %eax
	movq	%rbx, %rdi
.Ltmp82:
	callq	fprintf@PLT
	.loc	11 293 0                # /usr/bin/../lib/gcc/x86_64-linux-gnu/4.8/../../../../include/c++/4.8/bits/basic_string.h:293:0
.Ltmp83:
	movq	(%rsp), %rax
.Ltmp84:
	.loc	11 301 0                # /usr/bin/../lib/gcc/x86_64-linux-gnu/4.8/../../../../include/c++/4.8/bits/basic_string.h:301:0
	leaq	-24(%rax), %rdi
	cmpq	_ZNSs4_Rep20_S_empty_rep_storageE@GOTPCREL(%rip), %rdi
	jne	.LBB7_1
.Ltmp85:
.LBB7_6:                                # %_ZNSsD1Ev.exit
	.loc	1 49 0                  # Visitor.cpp:49:0
	addq	$16, %rsp
.Ltmp86:
	#DEBUG_VALUE: visit:this <- RDI
	popq	%rbx
	ret
.LBB7_1:
	#DEBUG_VALUE: visit:this <- RDI
.Ltmp87:
	#DEBUG_VALUE: __exchange_and_add_dispatch:__val <- -1
	.loc	11 245 12               # /usr/bin/../lib/gcc/x86_64-linux-gnu/4.8/../../../../include/c++/4.8/bits/basic_string.h:245:12
	addq	$-8, %rax
	.loc	18 81 9                 # /usr/bin/../lib/gcc/x86_64-linux-gnu/4.8/../../../../include/c++/4.8/ext/atomicity.h:81:9
.Ltmp88:
	cmpq	$0, __pthread_key_create@GOTPCREL(%rip)
	je	.LBB7_3
# BB#2:
	#DEBUG_VALUE: visit:this <- RDI
	#DEBUG_VALUE: __exchange_and_add_dispatch:__val <- -1
	movl	$-1, %ecx
.Ltmp89:
	#DEBUG_VALUE: __exchange_and_add:__val <- -1
	.loc	18 49 0                 # /usr/bin/../lib/gcc/x86_64-linux-gnu/4.8/../../../../include/c++/4.8/ext/atomicity.h:49:0
	lock
	xaddl	%ecx, (%rax)
	movl	%ecx, 12(%rsp)
	movl	12(%rsp), %ecx
	jmp	.LBB7_4
.Ltmp90:
.LBB7_3:
	#DEBUG_VALUE: visit:this <- RDI
	#DEBUG_VALUE: __exchange_and_add_dispatch:__val <- -1
	#DEBUG_VALUE: __exchange_and_add_single:__val <- -1
	.loc	18 67 0                 # /usr/bin/../lib/gcc/x86_64-linux-gnu/4.8/../../../../include/c++/4.8/ext/atomicity.h:67:0
	movl	(%rax), %ecx
.Ltmp91:
	#DEBUG_VALUE: __exchange_and_add_single:__result <- ECX
	.loc	18 68 0                 # /usr/bin/../lib/gcc/x86_64-linux-gnu/4.8/../../../../include/c++/4.8/ext/atomicity.h:68:0
	leal	-1(%rcx), %edx
	movl	%edx, (%rax)
.Ltmp92:
.LBB7_4:                                # %_ZN9__gnu_cxxL27__exchange_and_add_dispatchEPii.exit.i.i.i
	#DEBUG_VALUE: visit:this <- RDI
	.loc	11 245 12               # /usr/bin/../lib/gcc/x86_64-linux-gnu/4.8/../../../../include/c++/4.8/bits/basic_string.h:245:12
	testl	%ecx, %ecx
	jg	.LBB7_6
# BB#5:
.Ltmp93:
	#DEBUG_VALUE: visit:this <- RDI
	leaq	8(%rsp), %rsi
	.loc	11 249 0                # /usr/bin/../lib/gcc/x86_64-linux-gnu/4.8/../../../../include/c++/4.8/bits/basic_string.h:249:0
	callq	_ZNSs4_Rep10_M_destroyERKSaIcE@PLT
	jmp	.LBB7_6
.Ltmp94:
.Ltmp95:
	.size	_ZN7Visitor5visitEP13ASTIdentifier, .Ltmp95-_ZN7Visitor5visitEP13ASTIdentifier
.Lfunc_end7:
	.cfi_endproc

	.globl	_ZN7Visitor5visitEP18ASTArrayIdentifier
	.align	16, 0x90
	.type	_ZN7Visitor5visitEP18ASTArrayIdentifier,@function
_ZN7Visitor5visitEP18ASTArrayIdentifier: # @_ZN7Visitor5visitEP18ASTArrayIdentifier
	.cfi_startproc
.Lfunc_begin8:
	.loc	1 52 0                  # Visitor.cpp:52:0
# BB#0:
	pushq	%r15
.Ltmp101:
	.cfi_def_cfa_offset 16
	pushq	%r14
.Ltmp102:
	.cfi_def_cfa_offset 24
	pushq	%r12
.Ltmp103:
	.cfi_def_cfa_offset 32
	pushq	%rbx
.Ltmp104:
	.cfi_def_cfa_offset 40
	subq	$24, %rsp
.Ltmp105:
	.cfi_def_cfa_offset 64
.Ltmp106:
	.cfi_offset %rbx, -40
.Ltmp107:
	.cfi_offset %r12, -32
.Ltmp108:
	.cfi_offset %r14, -24
.Ltmp109:
	.cfi_offset %r15, -16
	#DEBUG_VALUE: visit:this <- RDI
	#DEBUG_VALUE: visit:aSTArrayIdentifier <- RSI
	movq	%rsi, %r15
.Ltmp110:
	#DEBUG_VALUE: visit:aSTArrayIdentifier <- R15
	movq	%rdi, %r14
.Ltmp111:
	#DEBUG_VALUE: visit:this <- R14
	.loc	1 53 0 prologue_end     # Visitor.cpp:53:0
	movq	XML_fp@GOTPCREL(%rip), %r12
	movq	(%r12), %rbx
.Ltmp112:
	#DEBUG_VALUE: getId:this <- R15
	.loc	7 179 0                 # ./AST.h:179:0
	movq	8(%r15), %rsi
	leaq	8(%rsp), %rdi
.Ltmp113:
	#DEBUG_VALUE: c_str:this <- RDI
	callq	_ZN13ASTIdentifier5getIdEv@PLT
	.loc	11 293 0                # /usr/bin/../lib/gcc/x86_64-linux-gnu/4.8/../../../../include/c++/4.8/bits/basic_string.h:293:0
.Ltmp114:
	movq	8(%rsp), %rdx
.Ltmp115:
	.loc	1 53 0                  # Visitor.cpp:53:0
	leaq	.L.str7(%rip), %rsi
	xorl	%eax, %eax
	movq	%rbx, %rdi
.Ltmp116:
	callq	fprintf@PLT
	.loc	11 293 0                # /usr/bin/../lib/gcc/x86_64-linux-gnu/4.8/../../../../include/c++/4.8/bits/basic_string.h:293:0
.Ltmp117:
	movq	8(%rsp), %rax
.Ltmp118:
	.loc	11 301 0                # /usr/bin/../lib/gcc/x86_64-linux-gnu/4.8/../../../../include/c++/4.8/bits/basic_string.h:301:0
	leaq	-24(%rax), %rdi
	cmpq	_ZNSs4_Rep20_S_empty_rep_storageE@GOTPCREL(%rip), %rdi
	jne	.LBB8_1
.Ltmp119:
.LBB8_6:                                # %_ZNSsD1Ev.exit
	#DEBUG_VALUE: visit:this <- R14
	#DEBUG_VALUE: visit:aSTArrayIdentifier <- R15
	.loc	1 54 0                  # Visitor.cpp:54:0
	movq	(%r12), %rcx
	leaq	.L.str8(%rip), %rdi
	movl	$11, %esi
	movl	$1, %edx
	callq	fwrite@PLT
.Ltmp120:
	#DEBUG_VALUE: getExpression:this <- R15
	.loc	7 183 0                 # ./AST.h:183:0
	movq	16(%r15), %rdi
.Ltmp121:
	.loc	1 55 0                  # Visitor.cpp:55:0
	movq	(%rdi), %rax
	movq	%r14, %rsi
	callq	*(%rax)
	.loc	1 56 0                  # Visitor.cpp:56:0
	movq	(%r12), %rcx
	leaq	.L.str9(%rip), %rdi
	movl	$12, %esi
	movl	$1, %edx
	callq	fwrite@PLT
	.loc	1 57 0                  # Visitor.cpp:57:0
	addq	$24, %rsp
	popq	%rbx
	popq	%r12
	popq	%r14
.Ltmp122:
	popq	%r15
.Ltmp123:
	ret
.LBB8_1:
.Ltmp124:
	#DEBUG_VALUE: visit:this <- R14
	#DEBUG_VALUE: visit:aSTArrayIdentifier <- R15
	#DEBUG_VALUE: getId:this <- R15
	#DEBUG_VALUE: __exchange_and_add_dispatch:__val <- -1
	.loc	11 245 12               # /usr/bin/../lib/gcc/x86_64-linux-gnu/4.8/../../../../include/c++/4.8/bits/basic_string.h:245:12
	addq	$-8, %rax
	.loc	18 81 9                 # /usr/bin/../lib/gcc/x86_64-linux-gnu/4.8/../../../../include/c++/4.8/ext/atomicity.h:81:9
.Ltmp125:
	cmpq	$0, __pthread_key_create@GOTPCREL(%rip)
	je	.LBB8_3
# BB#2:
	#DEBUG_VALUE: visit:this <- R14
	#DEBUG_VALUE: visit:aSTArrayIdentifier <- R15
	#DEBUG_VALUE: getId:this <- R15
	#DEBUG_VALUE: __exchange_and_add_dispatch:__val <- -1
	movl	$-1, %ecx
.Ltmp126:
	#DEBUG_VALUE: __exchange_and_add:__val <- -1
	.loc	18 49 0                 # /usr/bin/../lib/gcc/x86_64-linux-gnu/4.8/../../../../include/c++/4.8/ext/atomicity.h:49:0
	lock
	xaddl	%ecx, (%rax)
	movl	%ecx, 20(%rsp)
	movl	20(%rsp), %ecx
	jmp	.LBB8_4
.Ltmp127:
.LBB8_3:
	#DEBUG_VALUE: visit:this <- R14
	#DEBUG_VALUE: visit:aSTArrayIdentifier <- R15
	#DEBUG_VALUE: getId:this <- R15
	#DEBUG_VALUE: __exchange_and_add_dispatch:__val <- -1
	#DEBUG_VALUE: __exchange_and_add_single:__val <- -1
	.loc	18 67 0                 # /usr/bin/../lib/gcc/x86_64-linux-gnu/4.8/../../../../include/c++/4.8/ext/atomicity.h:67:0
	movl	(%rax), %ecx
.Ltmp128:
	#DEBUG_VALUE: __exchange_and_add_single:__result <- ECX
	.loc	18 68 0                 # /usr/bin/../lib/gcc/x86_64-linux-gnu/4.8/../../../../include/c++/4.8/ext/atomicity.h:68:0
	leal	-1(%rcx), %edx
	movl	%edx, (%rax)
.Ltmp129:
.LBB8_4:                                # %_ZN9__gnu_cxxL27__exchange_and_add_dispatchEPii.exit.i.i.i
	#DEBUG_VALUE: visit:this <- R14
	#DEBUG_VALUE: visit:aSTArrayIdentifier <- R15
	#DEBUG_VALUE: getId:this <- R15
	.loc	11 245 12               # /usr/bin/../lib/gcc/x86_64-linux-gnu/4.8/../../../../include/c++/4.8/bits/basic_string.h:245:12
	testl	%ecx, %ecx
	jg	.LBB8_6
# BB#5:
.Ltmp130:
	#DEBUG_VALUE: visit:this <- R14
	#DEBUG_VALUE: visit:aSTArrayIdentifier <- R15
	#DEBUG_VALUE: getId:this <- R15
	leaq	16(%rsp), %rsi
	.loc	11 249 0                # /usr/bin/../lib/gcc/x86_64-linux-gnu/4.8/../../../../include/c++/4.8/bits/basic_string.h:249:0
	callq	_ZNSs4_Rep10_M_destroyERKSaIcE@PLT
	jmp	.LBB8_6
.Ltmp131:
.Ltmp132:
	.size	_ZN7Visitor5visitEP18ASTArrayIdentifier, .Ltmp132-_ZN7Visitor5visitEP18ASTArrayIdentifier
.Lfunc_end8:
	.cfi_endproc

	.globl	_ZN7Visitor5visitEP24ASTArrayFieldDeclaration
	.align	16, 0x90
	.type	_ZN7Visitor5visitEP24ASTArrayFieldDeclaration,@function
_ZN7Visitor5visitEP24ASTArrayFieldDeclaration: # @_ZN7Visitor5visitEP24ASTArrayFieldDeclaration
	.cfi_startproc
.Lfunc_begin9:
	.loc	1 59 0                  # Visitor.cpp:59:0
# BB#0:
	pushq	%r15
.Ltmp137:
	.cfi_def_cfa_offset 16
	pushq	%r14
.Ltmp138:
	.cfi_def_cfa_offset 24
	pushq	%rbx
.Ltmp139:
	.cfi_def_cfa_offset 32
	subq	$16, %rsp
.Ltmp140:
	.cfi_def_cfa_offset 48
.Ltmp141:
	.cfi_offset %rbx, -32
.Ltmp142:
	.cfi_offset %r14, -24
.Ltmp143:
	.cfi_offset %r15, -16
	#DEBUG_VALUE: visit:this <- RDI
	#DEBUG_VALUE: visit:aSTArrayFieldDeclaration <- RSI
	movq	%rsi, %r14
.Ltmp144:
	#DEBUG_VALUE: visit:aSTArrayFieldDeclaration <- R14
	.loc	1 60 0 prologue_end     # Visitor.cpp:60:0
	movq	XML_fp@GOTPCREL(%rip), %r15
	movq	(%r15), %rbx
.Ltmp145:
	#DEBUG_VALUE: getId:this <- R14
	.loc	7 200 0                 # ./AST.h:200:0
	movq	16(%r14), %rsi
	leaq	(%rsp), %rdi
.Ltmp146:
	#DEBUG_VALUE: c_str:this <- RDI
	callq	_ZN13ASTIdentifier5getIdEv@PLT
	.loc	11 293 0                # /usr/bin/../lib/gcc/x86_64-linux-gnu/4.8/../../../../include/c++/4.8/bits/basic_string.h:293:0
.Ltmp147:
	movq	(%rsp), %rdx
.Ltmp148:
	.loc	1 60 0                  # Visitor.cpp:60:0
	leaq	.L.str7(%rip), %rsi
	xorl	%eax, %eax
	movq	%rbx, %rdi
.Ltmp149:
	callq	fprintf@PLT
	.loc	11 293 0                # /usr/bin/../lib/gcc/x86_64-linux-gnu/4.8/../../../../include/c++/4.8/bits/basic_string.h:293:0
.Ltmp150:
	movq	(%rsp), %rax
.Ltmp151:
	.loc	11 301 0                # /usr/bin/../lib/gcc/x86_64-linux-gnu/4.8/../../../../include/c++/4.8/bits/basic_string.h:301:0
	leaq	-24(%rax), %rdi
	cmpq	_ZNSs4_Rep20_S_empty_rep_storageE@GOTPCREL(%rip), %rdi
	jne	.LBB9_1
.Ltmp152:
.LBB9_6:                                # %_ZNSsD1Ev.exit
	#DEBUG_VALUE: visit:this <- RDI
	#DEBUG_VALUE: visit:aSTArrayFieldDeclaration <- R14
	.loc	1 61 0                  # Visitor.cpp:61:0
	movq	(%r15), %rcx
	leaq	.L.str8(%rip), %rdi
.Ltmp153:
	movl	$11, %esi
	movl	$1, %edx
	callq	fwrite@PLT
.Ltmp154:
	#DEBUG_VALUE: getExpression:this <- R14
	.loc	1 62 0                  # Visitor.cpp:62:0
	movq	(%r15), %rdi
	.loc	7 203 0                 # ./AST.h:203:0
.Ltmp155:
	movl	8(%r14), %edx
.Ltmp156:
	.loc	1 62 0                  # Visitor.cpp:62:0
	leaq	.L.str10(%rip), %rsi
	xorl	%eax, %eax
	callq	fprintf@PLT
	.loc	1 63 0                  # Visitor.cpp:63:0
	movq	(%r15), %rcx
	leaq	.L.str9(%rip), %rdi
	movl	$12, %esi
	movl	$1, %edx
	callq	fwrite@PLT
	.loc	1 64 0                  # Visitor.cpp:64:0
	addq	$16, %rsp
	popq	%rbx
	popq	%r14
.Ltmp157:
	popq	%r15
	ret
.LBB9_1:
.Ltmp158:
	#DEBUG_VALUE: visit:this <- RDI
	#DEBUG_VALUE: visit:aSTArrayFieldDeclaration <- R14
	#DEBUG_VALUE: getId:this <- R14
	#DEBUG_VALUE: __exchange_and_add_dispatch:__val <- -1
	.loc	11 245 12               # /usr/bin/../lib/gcc/x86_64-linux-gnu/4.8/../../../../include/c++/4.8/bits/basic_string.h:245:12
	addq	$-8, %rax
	.loc	18 81 9                 # /usr/bin/../lib/gcc/x86_64-linux-gnu/4.8/../../../../include/c++/4.8/ext/atomicity.h:81:9
.Ltmp159:
	cmpq	$0, __pthread_key_create@GOTPCREL(%rip)
	je	.LBB9_3
# BB#2:
	#DEBUG_VALUE: visit:this <- RDI
	#DEBUG_VALUE: visit:aSTArrayFieldDeclaration <- R14
	#DEBUG_VALUE: getId:this <- R14
	#DEBUG_VALUE: __exchange_and_add_dispatch:__val <- -1
	movl	$-1, %ecx
.Ltmp160:
	#DEBUG_VALUE: __exchange_and_add:__val <- -1
	.loc	18 49 0                 # /usr/bin/../lib/gcc/x86_64-linux-gnu/4.8/../../../../include/c++/4.8/ext/atomicity.h:49:0
	lock
	xaddl	%ecx, (%rax)
	movl	%ecx, 12(%rsp)
	movl	12(%rsp), %ecx
	jmp	.LBB9_4
.Ltmp161:
.LBB9_3:
	#DEBUG_VALUE: visit:this <- RDI
	#DEBUG_VALUE: visit:aSTArrayFieldDeclaration <- R14
	#DEBUG_VALUE: getId:this <- R14
	#DEBUG_VALUE: __exchange_and_add_dispatch:__val <- -1
	#DEBUG_VALUE: __exchange_and_add_single:__val <- -1
	.loc	18 67 0                 # /usr/bin/../lib/gcc/x86_64-linux-gnu/4.8/../../../../include/c++/4.8/ext/atomicity.h:67:0
	movl	(%rax), %ecx
.Ltmp162:
	#DEBUG_VALUE: __exchange_and_add_single:__result <- ECX
	.loc	18 68 0                 # /usr/bin/../lib/gcc/x86_64-linux-gnu/4.8/../../../../include/c++/4.8/ext/atomicity.h:68:0
	leal	-1(%rcx), %edx
	movl	%edx, (%rax)
.Ltmp163:
.LBB9_4:                                # %_ZN9__gnu_cxxL27__exchange_and_add_dispatchEPii.exit.i.i.i
	#DEBUG_VALUE: visit:this <- RDI
	#DEBUG_VALUE: visit:aSTArrayFieldDeclaration <- R14
	#DEBUG_VALUE: getId:this <- R14
	.loc	11 245 12               # /usr/bin/../lib/gcc/x86_64-linux-gnu/4.8/../../../../include/c++/4.8/bits/basic_string.h:245:12
	testl	%ecx, %ecx
	jg	.LBB9_6
# BB#5:
.Ltmp164:
	#DEBUG_VALUE: visit:this <- RDI
	#DEBUG_VALUE: visit:aSTArrayFieldDeclaration <- R14
	#DEBUG_VALUE: getId:this <- R14
	leaq	8(%rsp), %rsi
	.loc	11 249 0                # /usr/bin/../lib/gcc/x86_64-linux-gnu/4.8/../../../../include/c++/4.8/bits/basic_string.h:249:0
	callq	_ZNSs4_Rep10_M_destroyERKSaIcE@PLT
	jmp	.LBB9_6
.Ltmp165:
.Ltmp166:
	.size	_ZN7Visitor5visitEP24ASTArrayFieldDeclaration, .Ltmp166-_ZN7Visitor5visitEP24ASTArrayFieldDeclaration
.Lfunc_end9:
	.cfi_endproc

	.globl	_ZN7Visitor5visitEP3Def
	.align	16, 0x90
	.type	_ZN7Visitor5visitEP3Def,@function
_ZN7Visitor5visitEP3Def:                # @_ZN7Visitor5visitEP3Def
	.cfi_startproc
.Lfunc_begin10:
	.loc	1 66 0                  # Visitor.cpp:66:0
# BB#0:
	#DEBUG_VALUE: visit:this <- RDI
	#DEBUG_VALUE: visit:def <- RSI
	.loc	1 68 0 prologue_end     # Visitor.cpp:68:0
	ret
.Ltmp167:
.Ltmp168:
	.size	_ZN7Visitor5visitEP3Def, .Ltmp168-_ZN7Visitor5visitEP3Def
.Lfunc_end10:
	.cfi_endproc

	.globl	_ZN7Visitor5visitEP15ASTDeclarations
	.align	16, 0x90
	.type	_ZN7Visitor5visitEP15ASTDeclarations,@function
_ZN7Visitor5visitEP15ASTDeclarations:   # @_ZN7Visitor5visitEP15ASTDeclarations
	.cfi_startproc
.Lfunc_begin11:
	.loc	1 70 0                  # Visitor.cpp:70:0
# BB#0:
	#DEBUG_VALUE: visit:this <- RDI
	#DEBUG_VALUE: visit:aSTDeclarations <- RSI
	movq	%rdi, %rax
.Ltmp169:
	#DEBUG_VALUE: getDef:this <- RSI
	#DEBUG_VALUE: visit:this <- RAX
	.loc	7 218 0 prologue_end    # ./AST.h:218:0
	movq	8(%rsi), %rdi
.Ltmp170:
	#DEBUG_VALUE: visit:def <- RDI
	.loc	1 72 0                  # Visitor.cpp:72:0
	movq	(%rdi), %rcx
	movq	(%rcx), %rcx
	movq	%rax, %rsi
.Ltmp171:
	#DEBUG_VALUE: visit:this <- RSI
	jmpq	*%rcx  # TAILCALL
.Ltmp172:
.Ltmp173:
	.size	_ZN7Visitor5visitEP15ASTDeclarations, .Ltmp173-_ZN7Visitor5visitEP15ASTDeclarations
.Lfunc_end11:
	.cfi_endproc

	.globl	_ZN7Visitor5visitEP16CalloutStatement
	.align	16, 0x90
	.type	_ZN7Visitor5visitEP16CalloutStatement,@function
_ZN7Visitor5visitEP16CalloutStatement:  # @_ZN7Visitor5visitEP16CalloutStatement
	.cfi_startproc
.Lfunc_begin12:
	.loc	1 75 0                  # Visitor.cpp:75:0
# BB#0:
	pushq	%r15
.Ltmp179:
	.cfi_def_cfa_offset 16
	pushq	%r14
.Ltmp180:
	.cfi_def_cfa_offset 24
	pushq	%r12
.Ltmp181:
	.cfi_def_cfa_offset 32
	pushq	%rbx
.Ltmp182:
	.cfi_def_cfa_offset 40
	pushq	%rax
.Ltmp183:
	.cfi_def_cfa_offset 48
.Ltmp184:
	.cfi_offset %rbx, -40
.Ltmp185:
	.cfi_offset %r12, -32
.Ltmp186:
	.cfi_offset %r14, -24
.Ltmp187:
	.cfi_offset %r15, -16
	#DEBUG_VALUE: visit:this <- RDI
	#DEBUG_VALUE: visit:calloutStatement <- RSI
	movq	%rsi, %r12
.Ltmp188:
	#DEBUG_VALUE: visit:calloutStatement <- R12
	movq	%rdi, %r14
.Ltmp189:
	#DEBUG_VALUE: visit:this <- R14
	.loc	1 76 0 prologue_end     # Visitor.cpp:76:0
	movq	XML_fp@GOTPCREL(%rip), %r15
	movq	(%r15), %rdi
	.loc	11 293 0                # /usr/bin/../lib/gcc/x86_64-linux-gnu/4.8/../../../../include/c++/4.8/bits/basic_string.h:293:0
.Ltmp190:
	movq	8(%r12), %rdx
.Ltmp191:
	.loc	1 76 0                  # Visitor.cpp:76:0
	leaq	.L.str11(%rip), %rsi
	xorl	%eax, %eax
	callq	fprintf@PLT
	.loc	1 79 0                  # Visitor.cpp:79:0
.Ltmp192:
	movq	16(%r12), %rax
.Ltmp193:
	#DEBUG_VALUE: begin:this <- RAX
	#DEBUG_VALUE: end:this <- RAX
	.loc	16 155 0                # /usr/bin/../lib/gcc/x86_64-linux-gnu/4.8/../../../../include/c++/4.8/bits/stl_list.h:155:0
	movq	(%rax), %rbx
.Ltmp194:
	#DEBUG_VALUE: _List_iterator:__x <- RAX
	cmpq	%rax, %rbx
	je	.LBB12_2
.Ltmp195:
	.align	16, 0x90
.LBB12_1:                               # %.lr.ph
                                        # =>This Inner Loop Header: Depth=1
	#DEBUG_VALUE: visit:this <- R14
	#DEBUG_VALUE: visit:calloutStatement <- R12
	.loc	1 81 0                  # Visitor.cpp:81:0
	movq	16(%rbx), %rdi
	movq	(%rdi), %rax
	movq	%r14, %rsi
	callq	*(%rax)
.Ltmp196:
	.loc	16 155 0                # /usr/bin/../lib/gcc/x86_64-linux-gnu/4.8/../../../../include/c++/4.8/bits/stl_list.h:155:0
	movq	(%rbx), %rbx
	cmpq	16(%r12), %rbx
.Ltmp197:
	.loc	1 80 0                  # Visitor.cpp:80:0
	jne	.LBB12_1
.Ltmp198:
.LBB12_2:                               # %._crit_edge
	.loc	1 84 0                  # Visitor.cpp:84:0
	movq	(%r15), %rcx
	leaq	.L.str12(%rip), %rdi
	movl	$11, %esi
	movl	$1, %edx
	addq	$8, %rsp
	popq	%rbx
	popq	%r12
	popq	%r14
	popq	%r15
	jmp	fwrite@PLT              # TAILCALL
.Ltmp199:
.Ltmp200:
	.size	_ZN7Visitor5visitEP16CalloutStatement, .Ltmp200-_ZN7Visitor5visitEP16CalloutStatement
.Lfunc_end12:
	.cfi_endproc

	.globl	_ZN7Visitor5visitEP19AssignmentStatement
	.align	16, 0x90
	.type	_ZN7Visitor5visitEP19AssignmentStatement,@function
_ZN7Visitor5visitEP19AssignmentStatement: # @_ZN7Visitor5visitEP19AssignmentStatement
	.cfi_startproc
.Lfunc_begin13:
	.loc	1 87 0                  # Visitor.cpp:87:0
# BB#0:
	pushq	%r15
.Ltmp206:
	.cfi_def_cfa_offset 16
	pushq	%r14
.Ltmp207:
	.cfi_def_cfa_offset 24
	pushq	%r12
.Ltmp208:
	.cfi_def_cfa_offset 32
	pushq	%rbx
.Ltmp209:
	.cfi_def_cfa_offset 40
	pushq	%rax
.Ltmp210:
	.cfi_def_cfa_offset 48
.Ltmp211:
	.cfi_offset %rbx, -40
.Ltmp212:
	.cfi_offset %r12, -32
.Ltmp213:
	.cfi_offset %r14, -24
.Ltmp214:
	.cfi_offset %r15, -16
	#DEBUG_VALUE: visit:this <- RDI
	#DEBUG_VALUE: visit:assignmentStatement <- RSI
	movq	%rsi, %r12
.Ltmp215:
	#DEBUG_VALUE: visit:assignmentStatement <- R12
	movq	%rdi, %r14
.Ltmp216:
	#DEBUG_VALUE: visit:this <- R14
	.loc	1 88 0 prologue_end     # Visitor.cpp:88:0
	movq	XML_fp@GOTPCREL(%rip), %r15
	movq	(%r15), %rcx
	leaq	.L.str13(%rip), %rdi
	movl	$13, %esi
	movl	$1, %edx
	callq	fwrite@PLT
	.loc	1 90 0                  # Visitor.cpp:90:0
	movq	8(%r12), %rdi
	movq	(%rdi), %rax
	movq	%r14, %rsi
	callq	*(%rax)
	.loc	1 92 0                  # Visitor.cpp:92:0
.Ltmp217:
	movq	16(%r12), %rax
.Ltmp218:
	#DEBUG_VALUE: begin:this <- RAX
	#DEBUG_VALUE: end:this <- RAX
	.loc	16 155 0                # /usr/bin/../lib/gcc/x86_64-linux-gnu/4.8/../../../../include/c++/4.8/bits/stl_list.h:155:0
	movq	(%rax), %rbx
.Ltmp219:
	#DEBUG_VALUE: _List_iterator:__x <- RAX
	cmpq	%rax, %rbx
	je	.LBB13_2
.Ltmp220:
	.align	16, 0x90
.LBB13_1:                               # %.lr.ph
                                        # =>This Inner Loop Header: Depth=1
	#DEBUG_VALUE: visit:this <- R14
	#DEBUG_VALUE: visit:assignmentStatement <- R12
	.loc	1 94 0                  # Visitor.cpp:94:0
	movq	16(%rbx), %rdi
	movq	(%rdi), %rax
	movq	%r14, %rsi
	callq	*(%rax)
.Ltmp221:
	.loc	16 155 0                # /usr/bin/../lib/gcc/x86_64-linux-gnu/4.8/../../../../include/c++/4.8/bits/stl_list.h:155:0
	movq	(%rbx), %rbx
	cmpq	16(%r12), %rbx
.Ltmp222:
	.loc	1 93 0                  # Visitor.cpp:93:0
	jne	.LBB13_1
.Ltmp223:
.LBB13_2:                               # %._crit_edge
	.loc	1 97 0                  # Visitor.cpp:97:0
	movq	(%r15), %rcx
	leaq	.L.str14(%rip), %rdi
	movl	$14, %esi
	movl	$1, %edx
	addq	$8, %rsp
	popq	%rbx
	popq	%r12
	popq	%r14
	popq	%r15
	jmp	fwrite@PLT              # TAILCALL
.Ltmp224:
.Ltmp225:
	.size	_ZN7Visitor5visitEP19AssignmentStatement, .Ltmp225-_ZN7Visitor5visitEP19AssignmentStatement
.Lfunc_end13:
	.cfi_endproc

	.globl	_ZN7Visitor5visitEP7ASTMain
	.align	16, 0x90
	.type	_ZN7Visitor5visitEP7ASTMain,@function
_ZN7Visitor5visitEP7ASTMain:            # @_ZN7Visitor5visitEP7ASTMain
	.cfi_startproc
.Lfunc_begin14:
	.loc	1 101 0                 # Visitor.cpp:101:0
# BB#0:
	pushq	%r15
.Ltmp231:
	.cfi_def_cfa_offset 16
	pushq	%r14
.Ltmp232:
	.cfi_def_cfa_offset 24
	pushq	%r12
.Ltmp233:
	.cfi_def_cfa_offset 32
	pushq	%rbx
.Ltmp234:
	.cfi_def_cfa_offset 40
	pushq	%rax
.Ltmp235:
	.cfi_def_cfa_offset 48
.Ltmp236:
	.cfi_offset %rbx, -40
.Ltmp237:
	.cfi_offset %r12, -32
.Ltmp238:
	.cfi_offset %r14, -24
.Ltmp239:
	.cfi_offset %r15, -16
	#DEBUG_VALUE: visit:this <- RDI
	#DEBUG_VALUE: visit:aSTMain <- RSI
	movq	%rsi, %r12
.Ltmp240:
	#DEBUG_VALUE: visit:aSTMain <- R12
	movq	%rdi, %r14
.Ltmp241:
	#DEBUG_VALUE: visit:this <- R14
	.loc	1 103 0 prologue_end    # Visitor.cpp:103:0
	movq	XML_fp@GOTPCREL(%rip), %r15
	movq	(%r15), %rdi
	movq	8(%r12), %rax
.Ltmp242:
	#DEBUG_VALUE: begin:this <- RAX
	#DEBUG_VALUE: size:this <- RAX
	#DEBUG_VALUE: end:this <- RAX
	.loc	16 768 0                # /usr/bin/../lib/gcc/x86_64-linux-gnu/4.8/../../../../include/c++/4.8/bits/stl_list.h:768:0
	movq	(%rax), %rcx
	xorl	%edx, %edx
	jmp	.LBB14_2
.Ltmp243:
	.align	16, 0x90
.LBB14_1:                               # %.lr.ph.i.i.i
                                        #   in Loop: Header=BB14_2 Depth=1
	#DEBUG_VALUE: visit:this <- R14
	#DEBUG_VALUE: visit:aSTMain <- R12
	.loc	16 235 0                # /usr/bin/../lib/gcc/x86_64-linux-gnu/4.8/../../../../include/c++/4.8/bits/stl_list.h:235:0
	movq	(%rcx), %rcx
.Ltmp244:
	.loc	17 83 0                 # /usr/bin/../lib/gcc/x86_64-linux-gnu/4.8/../../../../include/c++/4.8/bits/stl_iterator_base_funcs.h:83:0
	incq	%rdx
.Ltmp245:
.LBB14_2:                               # %.lr.ph.i.i.i
                                        # =>This Inner Loop Header: Depth=1
	#DEBUG_VALUE: __n <- RDX
	.loc	16 235 0                # /usr/bin/../lib/gcc/x86_64-linux-gnu/4.8/../../../../include/c++/4.8/bits/stl_list.h:235:0
	cmpq	%rax, %rcx
.Ltmp246:
	.loc	17 80 0                 # /usr/bin/../lib/gcc/x86_64-linux-gnu/4.8/../../../../include/c++/4.8/bits/stl_iterator_base_funcs.h:80:0
	jne	.LBB14_1
.Ltmp247:
# BB#3:                                 # %_ZNKSt4listIP20ASTField_DeclarationSaIS1_EE4sizeEv.exit
	#DEBUG_VALUE: visit:this <- R14
	#DEBUG_VALUE: visit:aSTMain <- R12
	.loc	1 103 0                 # Visitor.cpp:103:0
	leaq	.L.str15(%rip), %rsi
	xorl	%eax, %eax
	callq	fprintf@PLT
	.loc	1 105 0                 # Visitor.cpp:105:0
.Ltmp248:
	movq	8(%r12), %rbx
.Ltmp249:
	#DEBUG_VALUE: _List_iterator:__x <- RBX
	#DEBUG_VALUE: end:this <- RBX
	#DEBUG_VALUE: rbegin:this <- RBX
	#DEBUG_VALUE: rend:this <- RBX
	#DEBUG_VALUE: begin:this <- RBX
	cmpq	(%rbx), %rbx
	je	.LBB14_5
.Ltmp250:
	.align	16, 0x90
.LBB14_4:                               # %.lr.ph7
                                        # =>This Inner Loop Header: Depth=1
	#DEBUG_VALUE: visit:this <- R14
	#DEBUG_VALUE: visit:aSTMain <- R12
	.loc	16 170 0                # /usr/bin/../lib/gcc/x86_64-linux-gnu/4.8/../../../../include/c++/4.8/bits/stl_list.h:170:0
	movq	8(%rbx), %rax
.Ltmp251:
	.loc	1 107 0                 # Visitor.cpp:107:0
	movq	16(%rax), %rdi
	movq	(%rdi), %rax
	movq	%r14, %rsi
	callq	*(%rax)
.Ltmp252:
	.loc	16 170 0                # /usr/bin/../lib/gcc/x86_64-linux-gnu/4.8/../../../../include/c++/4.8/bits/stl_list.h:170:0
	movq	8(%rbx), %rbx
.Ltmp253:
	.loc	1 106 0                 # Visitor.cpp:106:0
	movq	8(%r12), %rax
.Ltmp254:
	#DEBUG_VALUE: rend:this <- RAX
	#DEBUG_VALUE: begin:this <- RAX
	.loc	16 170 0                # /usr/bin/../lib/gcc/x86_64-linux-gnu/4.8/../../../../include/c++/4.8/bits/stl_list.h:170:0
	cmpq	(%rax), %rbx
.Ltmp255:
	.loc	1 106 3                 # Visitor.cpp:106:3
	jne	.LBB14_4
.Ltmp256:
.LBB14_5:                               # %._crit_edge8
	#DEBUG_VALUE: visit:this <- R14
	#DEBUG_VALUE: visit:aSTMain <- R12
	.loc	1 110 0                 # Visitor.cpp:110:0
	movq	(%r15), %rcx
	leaq	.L.str16(%rip), %rdi
	movl	$22, %esi
	movl	$1, %edx
	callq	fwrite@PLT
	.loc	1 112 0                 # Visitor.cpp:112:0
	movq	(%r15), %rdi
	movq	16(%r12), %rax
.Ltmp257:
	#DEBUG_VALUE: begin:this <- RAX
	#DEBUG_VALUE: size:this <- RAX
	#DEBUG_VALUE: end:this <- RAX
	.loc	16 768 0                # /usr/bin/../lib/gcc/x86_64-linux-gnu/4.8/../../../../include/c++/4.8/bits/stl_list.h:768:0
	movq	(%rax), %rcx
	xorl	%edx, %edx
	jmp	.LBB14_7
.Ltmp258:
	.align	16, 0x90
.LBB14_6:                               # %.lr.ph.i.i.i4
                                        #   in Loop: Header=BB14_7 Depth=1
	#DEBUG_VALUE: visit:this <- R14
	#DEBUG_VALUE: visit:aSTMain <- R12
	.loc	16 235 0                # /usr/bin/../lib/gcc/x86_64-linux-gnu/4.8/../../../../include/c++/4.8/bits/stl_list.h:235:0
	movq	(%rcx), %rcx
.Ltmp259:
	.loc	17 83 0                 # /usr/bin/../lib/gcc/x86_64-linux-gnu/4.8/../../../../include/c++/4.8/bits/stl_iterator_base_funcs.h:83:0
	incq	%rdx
.Ltmp260:
.LBB14_7:                               # %.lr.ph.i.i.i4
                                        # =>This Inner Loop Header: Depth=1
	#DEBUG_VALUE: __n <- RDX
	.loc	16 235 0                # /usr/bin/../lib/gcc/x86_64-linux-gnu/4.8/../../../../include/c++/4.8/bits/stl_list.h:235:0
	cmpq	%rax, %rcx
.Ltmp261:
	.loc	17 80 0                 # /usr/bin/../lib/gcc/x86_64-linux-gnu/4.8/../../../../include/c++/4.8/bits/stl_iterator_base_funcs.h:80:0
	jne	.LBB14_6
.Ltmp262:
# BB#8:                                 # %_ZNKSt4listIP12ASTStatementSaIS1_EE4sizeEv.exit
	#DEBUG_VALUE: visit:this <- R14
	#DEBUG_VALUE: visit:aSTMain <- R12
	.loc	1 112 0                 # Visitor.cpp:112:0
	leaq	.L.str17(%rip), %rsi
	xorl	%eax, %eax
	callq	fprintf@PLT
	.loc	1 114 0                 # Visitor.cpp:114:0
.Ltmp263:
	movq	16(%r12), %rbx
.Ltmp264:
	#DEBUG_VALUE: _List_iterator:__x <- RBX
	#DEBUG_VALUE: end:this <- RBX
	#DEBUG_VALUE: rbegin:this <- RBX
	#DEBUG_VALUE: rend:this <- RBX
	#DEBUG_VALUE: begin:this <- RBX
	cmpq	(%rbx), %rbx
	je	.LBB14_10
.Ltmp265:
	.align	16, 0x90
.LBB14_9:                               # %.lr.ph
                                        # =>This Inner Loop Header: Depth=1
	#DEBUG_VALUE: visit:this <- R14
	#DEBUG_VALUE: visit:aSTMain <- R12
	.loc	16 170 0                # /usr/bin/../lib/gcc/x86_64-linux-gnu/4.8/../../../../include/c++/4.8/bits/stl_list.h:170:0
	movq	8(%rbx), %rax
.Ltmp266:
	.loc	1 116 0                 # Visitor.cpp:116:0
	movq	16(%rax), %rdi
	movq	(%rdi), %rax
	movq	%r14, %rsi
	callq	*(%rax)
.Ltmp267:
	.loc	16 170 0                # /usr/bin/../lib/gcc/x86_64-linux-gnu/4.8/../../../../include/c++/4.8/bits/stl_list.h:170:0
	movq	8(%rbx), %rbx
.Ltmp268:
	.loc	1 115 0                 # Visitor.cpp:115:0
	movq	16(%r12), %rax
.Ltmp269:
	#DEBUG_VALUE: rend:this <- RAX
	#DEBUG_VALUE: begin:this <- RAX
	.loc	16 170 0                # /usr/bin/../lib/gcc/x86_64-linux-gnu/4.8/../../../../include/c++/4.8/bits/stl_list.h:170:0
	cmpq	(%rax), %rbx
.Ltmp270:
	.loc	1 115 3                 # Visitor.cpp:115:3
	jne	.LBB14_9
.Ltmp271:
.LBB14_10:                              # %._crit_edge
	.loc	1 119 0                 # Visitor.cpp:119:0
	movq	(%r15), %rcx
	leaq	.L.str18(%rip), %rdi
	movl	$26, %esi
	movl	$1, %edx
	addq	$8, %rsp
	popq	%rbx
	popq	%r12
	popq	%r14
	popq	%r15
	jmp	fwrite@PLT              # TAILCALL
.Ltmp272:
.Ltmp273:
	.size	_ZN7Visitor5visitEP7ASTMain, .Ltmp273-_ZN7Visitor5visitEP7ASTMain
.Lfunc_end14:
	.cfi_endproc

	.globl	_ZN7Visitor5visitEP8Argument
	.align	16, 0x90
	.type	_ZN7Visitor5visitEP8Argument,@function
_ZN7Visitor5visitEP8Argument:           # @_ZN7Visitor5visitEP8Argument
	.cfi_startproc
.Lfunc_begin15:
	.loc	1 123 0                 # Visitor.cpp:123:0
# BB#0:
	.loc	1 124 0 prologue_end    # Visitor.cpp:124:0
	pushq	%rbx
.Ltmp276:
	.cfi_def_cfa_offset 16
.Ltmp277:
	.cfi_offset %rbx, -16
	#DEBUG_VALUE: visit:this <- RDI
	#DEBUG_VALUE: visit:argument <- RSI
	movq	XML_fp@GOTPCREL(%rip), %rbx
	movq	(%rbx), %rcx
	leaq	.L.str19(%rip), %rdi
.Ltmp278:
	movl	$11, %esi
.Ltmp279:
	movl	$1, %edx
	callq	fwrite@PLT
	.loc	1 125 0                 # Visitor.cpp:125:0
	movq	(%rbx), %rcx
	leaq	.L.str20(%rip), %rdi
	movl	$12, %esi
	movl	$1, %edx
	popq	%rbx
	jmp	fwrite@PLT              # TAILCALL
.Ltmp280:
.Ltmp281:
	.size	_ZN7Visitor5visitEP8Argument, .Ltmp281-_ZN7Visitor5visitEP8Argument
.Lfunc_end15:
	.cfi_endproc

	.globl	_ZN7Visitor5visitEP10RUnaryExpr
	.align	16, 0x90
	.type	_ZN7Visitor5visitEP10RUnaryExpr,@function
_ZN7Visitor5visitEP10RUnaryExpr:        # @_ZN7Visitor5visitEP10RUnaryExpr
	.cfi_startproc
.Lfunc_begin16:
	.loc	1 128 0                 # Visitor.cpp:128:0
# BB#0:
	pushq	%r15
.Ltmp287:
	.cfi_def_cfa_offset 16
	pushq	%r14
.Ltmp288:
	.cfi_def_cfa_offset 24
	pushq	%r12
.Ltmp289:
	.cfi_def_cfa_offset 32
	pushq	%rbx
.Ltmp290:
	.cfi_def_cfa_offset 40
	pushq	%rax
.Ltmp291:
	.cfi_def_cfa_offset 48
.Ltmp292:
	.cfi_offset %rbx, -40
.Ltmp293:
	.cfi_offset %r12, -32
.Ltmp294:
	.cfi_offset %r14, -24
.Ltmp295:
	.cfi_offset %r15, -16
	#DEBUG_VALUE: visit:this <- RDI
	#DEBUG_VALUE: visit:rUnaryExpr <- RSI
	movq	%rsi, %r14
.Ltmp296:
	#DEBUG_VALUE: visit:rUnaryExpr <- R14
	movq	%rdi, %r12
.Ltmp297:
	#DEBUG_VALUE: visit:this <- R12
	.loc	1 129 0 prologue_end    # Visitor.cpp:129:0
	movq	XML_fp@GOTPCREL(%rip), %r15
	movq	(%r15), %rcx
	leaq	.L.str21(%rip), %rdi
	movl	$27, %esi
	movl	$1, %edx
	callq	fwrite@PLT
.Ltmp298:
	#DEBUG_VALUE: getExpressions:this <- R14
	.loc	7 284 0                 # ./AST.h:284:0
	movq	16(%r14), %r14
.Ltmp299:
	#DEBUG_VALUE: _List_iterator:__x <- R14
	#DEBUG_VALUE: visit:exprs <- R14
	#DEBUG_VALUE: rbegin:this <- R14
	#DEBUG_VALUE: end:this <- R14
	#DEBUG_VALUE: rend:this <- R14
	#DEBUG_VALUE: begin:this <- R14
	cmpq	(%r14), %r14
	je	.LBB16_3
.Ltmp300:
# BB#1:
	#DEBUG_VALUE: visit:this <- R12
	#DEBUG_VALUE: visit:exprs <- R14
	movq	%r14, %rbx
	.align	16, 0x90
.LBB16_2:                               # %.lr.ph
                                        # =>This Inner Loop Header: Depth=1
.Ltmp301:
	#DEBUG_VALUE: visit:this <- R12
	#DEBUG_VALUE: visit:exprs <- R14
	.loc	16 170 0                # /usr/bin/../lib/gcc/x86_64-linux-gnu/4.8/../../../../include/c++/4.8/bits/stl_list.h:170:0
	movq	8(%rbx), %rax
.Ltmp302:
	.loc	1 135 0                 # Visitor.cpp:135:0
	movq	16(%rax), %rdi
	movq	(%rdi), %rax
	movq	%r12, %rsi
	callq	*(%rax)
.Ltmp303:
	.loc	16 170 0                # /usr/bin/../lib/gcc/x86_64-linux-gnu/4.8/../../../../include/c++/4.8/bits/stl_list.h:170:0
	movq	8(%rbx), %rbx
	cmpq	(%r14), %rbx
.Ltmp304:
	.loc	1 134 3                 # Visitor.cpp:134:3
	jne	.LBB16_2
.Ltmp305:
.LBB16_3:                               # %._crit_edge
	.loc	1 138 0                 # Visitor.cpp:138:0
	movq	(%r15), %rcx
	leaq	.L.str22(%rip), %rdi
	movl	$19, %esi
	movl	$1, %edx
	addq	$8, %rsp
	popq	%rbx
	popq	%r12
	popq	%r14
	popq	%r15
	jmp	fwrite@PLT              # TAILCALL
.Ltmp306:
.Ltmp307:
	.size	_ZN7Visitor5visitEP10RUnaryExpr, .Ltmp307-_ZN7Visitor5visitEP10RUnaryExpr
.Lfunc_end16:
	.cfi_endproc

	.globl	_ZN7Visitor5visitEP11RBinaryExpr
	.align	16, 0x90
	.type	_ZN7Visitor5visitEP11RBinaryExpr,@function
_ZN7Visitor5visitEP11RBinaryExpr:       # @_ZN7Visitor5visitEP11RBinaryExpr
	.cfi_startproc
.Lfunc_begin17:
	.loc	1 141 0                 # Visitor.cpp:141:0
# BB#0:
	.loc	1 142 0 prologue_end    # Visitor.cpp:142:0
	pushq	%rbx
.Ltmp310:
	.cfi_def_cfa_offset 16
.Ltmp311:
	.cfi_offset %rbx, -16
	#DEBUG_VALUE: visit:this <- RDI
	#DEBUG_VALUE: visit:rBinaryExpr <- RSI
	movq	XML_fp@GOTPCREL(%rip), %rbx
	movq	(%rbx), %rcx
	leaq	.L.str23(%rip), %rdi
.Ltmp312:
	movl	$28, %esi
.Ltmp313:
	movl	$1, %edx
	callq	fwrite@PLT
	.loc	1 144 0                 # Visitor.cpp:144:0
	movq	(%rbx), %rcx
	leaq	.L.str24(%rip), %rdi
	movl	$20, %esi
	movl	$1, %edx
	popq	%rbx
	jmp	fwrite@PLT              # TAILCALL
.Ltmp314:
.Ltmp315:
	.size	_ZN7Visitor5visitEP11RBinaryExpr, .Ltmp315-_ZN7Visitor5visitEP11RBinaryExpr
.Lfunc_end17:
	.cfi_endproc

	.globl	_ZN7Visitor5visitEP15ExpressionRight
	.align	16, 0x90
	.type	_ZN7Visitor5visitEP15ExpressionRight,@function
_ZN7Visitor5visitEP15ExpressionRight:   # @_ZN7Visitor5visitEP15ExpressionRight
	.cfi_startproc
.Lfunc_begin18:
	.loc	1 147 0                 # Visitor.cpp:147:0
# BB#0:
	.loc	1 148 0 prologue_end    # Visitor.cpp:148:0
	pushq	%rbx
.Ltmp318:
	.cfi_def_cfa_offset 16
.Ltmp319:
	.cfi_offset %rbx, -16
	#DEBUG_VALUE: visit:this <- RDI
	#DEBUG_VALUE: visit:expressionRight <- RSI
	movq	XML_fp@GOTPCREL(%rip), %rbx
	movq	(%rbx), %rcx
	leaq	.L.str25(%rip), %rdi
.Ltmp320:
	movl	$7, %esi
.Ltmp321:
	movl	$1, %edx
	callq	fwrite@PLT
	.loc	1 150 0                 # Visitor.cpp:150:0
	movq	(%rbx), %rcx
	leaq	.L.str26(%rip), %rdi
	movl	$8, %esi
	movl	$1, %edx
	popq	%rbx
	jmp	fwrite@PLT              # TAILCALL
.Ltmp322:
.Ltmp323:
	.size	_ZN7Visitor5visitEP15ExpressionRight, .Ltmp323-_ZN7Visitor5visitEP15ExpressionRight
.Lfunc_end18:
	.cfi_endproc

	.globl	_ZN7Visitor5visitEP7Integer
	.align	16, 0x90
	.type	_ZN7Visitor5visitEP7Integer,@function
_ZN7Visitor5visitEP7Integer:            # @_ZN7Visitor5visitEP7Integer
	.cfi_startproc
.Lfunc_begin19:
	.loc	1 153 0                 # Visitor.cpp:153:0
# BB#0:
	#DEBUG_VALUE: visit:this <- RDI
	#DEBUG_VALUE: visit:integer <- RSI
	.loc	1 154 0 prologue_end    # Visitor.cpp:154:0
	movq	XML_fp@GOTPCREL(%rip), %rax
	movq	(%rax), %rdi
.Ltmp324:
	#DEBUG_VALUE: getValue:this <- RSI
	.loc	7 324 0                 # ./AST.h:324:0
	movl	16(%rsi), %edx
.Ltmp325:
	.loc	1 154 0                 # Visitor.cpp:154:0
	leaq	.L.str10(%rip), %rsi
.Ltmp326:
	xorl	%eax, %eax
	jmp	fprintf@PLT             # TAILCALL
.Ltmp327:
.Ltmp328:
	.size	_ZN7Visitor5visitEP7Integer, .Ltmp328-_ZN7Visitor5visitEP7Integer
.Lfunc_end19:
	.cfi_endproc

	.globl	_ZN7Visitor5visitEP4Bool
	.align	16, 0x90
	.type	_ZN7Visitor5visitEP4Bool,@function
_ZN7Visitor5visitEP4Bool:               # @_ZN7Visitor5visitEP4Bool
	.cfi_startproc
.Lfunc_begin20:
	.loc	1 157 0                 # Visitor.cpp:157:0
# BB#0:
	#DEBUG_VALUE: visit:this <- RDI
	#DEBUG_VALUE: visit:bool_obj <- RSI
	#DEBUG_VALUE: getValue:this <- RSI
	.loc	7 311 0 prologue_end    # ./AST.h:311:0
	cmpl	$0, 8(%rsi)
.Ltmp329:
	.loc	1 159 0                 # Visitor.cpp:159:0
	movq	XML_fp@GOTPCREL(%rip), %rax
	movq	(%rax), %rcx
	.loc	1 158 0                 # Visitor.cpp:158:0
	je	.LBB20_2
.Ltmp330:
# BB#1:
	#DEBUG_VALUE: visit:this <- RDI
	.loc	1 159 0                 # Visitor.cpp:159:0
	leaq	.L.str27(%rip), %rdi
.Ltmp331:
	movl	$21, %esi
	movl	$1, %edx
	jmp	fwrite@PLT              # TAILCALL
.LBB20_2:
.Ltmp332:
	#DEBUG_VALUE: visit:this <- RDI
	.loc	1 161 0                 # Visitor.cpp:161:0
	leaq	.L.str28(%rip), %rdi
.Ltmp333:
	movl	$22, %esi
	movl	$1, %edx
	jmp	fwrite@PLT              # TAILCALL
.Ltmp334:
.Ltmp335:
	.size	_ZN7Visitor5visitEP4Bool, .Ltmp335-_ZN7Visitor5visitEP4Bool
.Lfunc_end20:
	.cfi_endproc

	.globl	_ZN7Visitor5visitEP11CharLiteral
	.align	16, 0x90
	.type	_ZN7Visitor5visitEP11CharLiteral,@function
_ZN7Visitor5visitEP11CharLiteral:       # @_ZN7Visitor5visitEP11CharLiteral
	.cfi_startproc
.Lfunc_begin21:
	.loc	1 164 0                 # Visitor.cpp:164:0
# BB#0:
	.loc	1 165 0 prologue_end    # Visitor.cpp:165:0
	pushq	%rbx
.Ltmp338:
	.cfi_def_cfa_offset 16
	subq	$16, %rsp
.Ltmp339:
	.cfi_def_cfa_offset 32
.Ltmp340:
	.cfi_offset %rbx, -16
	#DEBUG_VALUE: visit:this <- RDI
	#DEBUG_VALUE: visit:charLiteral <- RSI
	movq	XML_fp@GOTPCREL(%rip), %rax
	movq	(%rax), %rbx
.Ltmp341:
	#DEBUG_VALUE: getLiteral:this <- RSI
	.loc	7 258 0                 # ./AST.h:258:0
	addq	$16, %rsi
.Ltmp342:
	leaq	(%rsp), %rdi
.Ltmp343:
	#DEBUG_VALUE: c_str:this <- RDI
	callq	_ZNSsC1ERKSs@PLT
	.loc	11 293 0                # /usr/bin/../lib/gcc/x86_64-linux-gnu/4.8/../../../../include/c++/4.8/bits/basic_string.h:293:0
.Ltmp344:
	movq	(%rsp), %rdx
.Ltmp345:
	.loc	1 165 0                 # Visitor.cpp:165:0
	leaq	.L.str29(%rip), %rsi
	xorl	%eax, %eax
	movq	%rbx, %rdi
.Ltmp346:
	callq	fprintf@PLT
	.loc	11 293 0                # /usr/bin/../lib/gcc/x86_64-linux-gnu/4.8/../../../../include/c++/4.8/bits/basic_string.h:293:0
.Ltmp347:
	movq	(%rsp), %rax
.Ltmp348:
	.loc	11 301 0                # /usr/bin/../lib/gcc/x86_64-linux-gnu/4.8/../../../../include/c++/4.8/bits/basic_string.h:301:0
	leaq	-24(%rax), %rdi
	cmpq	_ZNSs4_Rep20_S_empty_rep_storageE@GOTPCREL(%rip), %rdi
	jne	.LBB21_1
.Ltmp349:
.LBB21_6:                               # %_ZNSsD1Ev.exit
	.loc	1 166 0                 # Visitor.cpp:166:0
	addq	$16, %rsp
.Ltmp350:
	#DEBUG_VALUE: visit:this <- RDI
	popq	%rbx
	ret
.LBB21_1:
	#DEBUG_VALUE: visit:this <- RDI
.Ltmp351:
	#DEBUG_VALUE: __exchange_and_add_dispatch:__val <- -1
	.loc	11 245 12               # /usr/bin/../lib/gcc/x86_64-linux-gnu/4.8/../../../../include/c++/4.8/bits/basic_string.h:245:12
	addq	$-8, %rax
	.loc	18 81 9                 # /usr/bin/../lib/gcc/x86_64-linux-gnu/4.8/../../../../include/c++/4.8/ext/atomicity.h:81:9
.Ltmp352:
	cmpq	$0, __pthread_key_create@GOTPCREL(%rip)
	je	.LBB21_3
# BB#2:
	#DEBUG_VALUE: visit:this <- RDI
	#DEBUG_VALUE: __exchange_and_add_dispatch:__val <- -1
	movl	$-1, %ecx
.Ltmp353:
	#DEBUG_VALUE: __exchange_and_add:__val <- -1
	.loc	18 49 0                 # /usr/bin/../lib/gcc/x86_64-linux-gnu/4.8/../../../../include/c++/4.8/ext/atomicity.h:49:0
	lock
	xaddl	%ecx, (%rax)
	movl	%ecx, 12(%rsp)
	movl	12(%rsp), %ecx
	jmp	.LBB21_4
.Ltmp354:
.LBB21_3:
	#DEBUG_VALUE: visit:this <- RDI
	#DEBUG_VALUE: __exchange_and_add_dispatch:__val <- -1
	#DEBUG_VALUE: __exchange_and_add_single:__val <- -1
	.loc	18 67 0                 # /usr/bin/../lib/gcc/x86_64-linux-gnu/4.8/../../../../include/c++/4.8/ext/atomicity.h:67:0
	movl	(%rax), %ecx
.Ltmp355:
	#DEBUG_VALUE: __exchange_and_add_single:__result <- ECX
	.loc	18 68 0                 # /usr/bin/../lib/gcc/x86_64-linux-gnu/4.8/../../../../include/c++/4.8/ext/atomicity.h:68:0
	leal	-1(%rcx), %edx
	movl	%edx, (%rax)
.Ltmp356:
.LBB21_4:                               # %_ZN9__gnu_cxxL27__exchange_and_add_dispatchEPii.exit.i.i.i
	#DEBUG_VALUE: visit:this <- RDI
	.loc	11 245 12               # /usr/bin/../lib/gcc/x86_64-linux-gnu/4.8/../../../../include/c++/4.8/bits/basic_string.h:245:12
	testl	%ecx, %ecx
	jg	.LBB21_6
# BB#5:
.Ltmp357:
	#DEBUG_VALUE: visit:this <- RDI
	leaq	8(%rsp), %rsi
	.loc	11 249 0                # /usr/bin/../lib/gcc/x86_64-linux-gnu/4.8/../../../../include/c++/4.8/bits/basic_string.h:249:0
	callq	_ZNSs4_Rep10_M_destroyERKSaIcE@PLT
	jmp	.LBB21_6
.Ltmp358:
.Ltmp359:
	.size	_ZN7Visitor5visitEP11CharLiteral, .Ltmp359-_ZN7Visitor5visitEP11CharLiteral
.Lfunc_end21:
	.cfi_endproc

	.globl	_ZN7Visitor5visitEP13StringLiteral
	.align	16, 0x90
	.type	_ZN7Visitor5visitEP13StringLiteral,@function
_ZN7Visitor5visitEP13StringLiteral:     # @_ZN7Visitor5visitEP13StringLiteral
	.cfi_startproc
.Lfunc_begin22:
	.loc	1 168 0                 # Visitor.cpp:168:0
# BB#0:
	.loc	1 169 0 prologue_end    # Visitor.cpp:169:0
	pushq	%rbx
.Ltmp362:
	.cfi_def_cfa_offset 16
	subq	$16, %rsp
.Ltmp363:
	.cfi_def_cfa_offset 32
.Ltmp364:
	.cfi_offset %rbx, -16
	#DEBUG_VALUE: visit:this <- RDI
	#DEBUG_VALUE: visit:stringLiteral <- RSI
	movq	XML_fp@GOTPCREL(%rip), %rax
	movq	(%rax), %rbx
.Ltmp365:
	#DEBUG_VALUE: getLiteral:this <- RSI
	.loc	7 271 0                 # ./AST.h:271:0
	addq	$16, %rsi
.Ltmp366:
	leaq	(%rsp), %rdi
.Ltmp367:
	#DEBUG_VALUE: c_str:this <- RDI
	callq	_ZNSsC1ERKSs@PLT
	.loc	11 293 0                # /usr/bin/../lib/gcc/x86_64-linux-gnu/4.8/../../../../include/c++/4.8/bits/basic_string.h:293:0
.Ltmp368:
	movq	(%rsp), %rdx
.Ltmp369:
	.loc	1 169 0                 # Visitor.cpp:169:0
	leaq	.L.str30(%rip), %rsi
	xorl	%eax, %eax
	movq	%rbx, %rdi
.Ltmp370:
	callq	fprintf@PLT
	.loc	11 293 0                # /usr/bin/../lib/gcc/x86_64-linux-gnu/4.8/../../../../include/c++/4.8/bits/basic_string.h:293:0
.Ltmp371:
	movq	(%rsp), %rax
.Ltmp372:
	.loc	11 301 0                # /usr/bin/../lib/gcc/x86_64-linux-gnu/4.8/../../../../include/c++/4.8/bits/basic_string.h:301:0
	leaq	-24(%rax), %rdi
	cmpq	_ZNSs4_Rep20_S_empty_rep_storageE@GOTPCREL(%rip), %rdi
	jne	.LBB22_1
.Ltmp373:
.LBB22_6:                               # %_ZNSsD1Ev.exit
	.loc	1 170 0                 # Visitor.cpp:170:0
	addq	$16, %rsp
.Ltmp374:
	#DEBUG_VALUE: visit:this <- RDI
	popq	%rbx
	ret
.LBB22_1:
	#DEBUG_VALUE: visit:this <- RDI
.Ltmp375:
	#DEBUG_VALUE: __exchange_and_add_dispatch:__val <- -1
	.loc	11 245 12               # /usr/bin/../lib/gcc/x86_64-linux-gnu/4.8/../../../../include/c++/4.8/bits/basic_string.h:245:12
	addq	$-8, %rax
	.loc	18 81 9                 # /usr/bin/../lib/gcc/x86_64-linux-gnu/4.8/../../../../include/c++/4.8/ext/atomicity.h:81:9
.Ltmp376:
	cmpq	$0, __pthread_key_create@GOTPCREL(%rip)
	je	.LBB22_3
# BB#2:
	#DEBUG_VALUE: visit:this <- RDI
	#DEBUG_VALUE: __exchange_and_add_dispatch:__val <- -1
	movl	$-1, %ecx
.Ltmp377:
	#DEBUG_VALUE: __exchange_and_add:__val <- -1
	.loc	18 49 0                 # /usr/bin/../lib/gcc/x86_64-linux-gnu/4.8/../../../../include/c++/4.8/ext/atomicity.h:49:0
	lock
	xaddl	%ecx, (%rax)
	movl	%ecx, 12(%rsp)
	movl	12(%rsp), %ecx
	jmp	.LBB22_4
.Ltmp378:
.LBB22_3:
	#DEBUG_VALUE: visit:this <- RDI
	#DEBUG_VALUE: __exchange_and_add_dispatch:__val <- -1
	#DEBUG_VALUE: __exchange_and_add_single:__val <- -1
	.loc	18 67 0                 # /usr/bin/../lib/gcc/x86_64-linux-gnu/4.8/../../../../include/c++/4.8/ext/atomicity.h:67:0
	movl	(%rax), %ecx
.Ltmp379:
	#DEBUG_VALUE: __exchange_and_add_single:__result <- ECX
	.loc	18 68 0                 # /usr/bin/../lib/gcc/x86_64-linux-gnu/4.8/../../../../include/c++/4.8/ext/atomicity.h:68:0
	leal	-1(%rcx), %edx
	movl	%edx, (%rax)
.Ltmp380:
.LBB22_4:                               # %_ZN9__gnu_cxxL27__exchange_and_add_dispatchEPii.exit.i.i.i
	#DEBUG_VALUE: visit:this <- RDI
	.loc	11 245 12               # /usr/bin/../lib/gcc/x86_64-linux-gnu/4.8/../../../../include/c++/4.8/bits/basic_string.h:245:12
	testl	%ecx, %ecx
	jg	.LBB22_6
# BB#5:
.Ltmp381:
	#DEBUG_VALUE: visit:this <- RDI
	leaq	8(%rsp), %rsi
	.loc	11 249 0                # /usr/bin/../lib/gcc/x86_64-linux-gnu/4.8/../../../../include/c++/4.8/bits/basic_string.h:249:0
	callq	_ZNSs4_Rep10_M_destroyERKSaIcE@PLT
	jmp	.LBB22_6
.Ltmp382:
.Ltmp383:
	.size	_ZN7Visitor5visitEP13StringLiteral, .Ltmp383-_ZN7Visitor5visitEP13StringLiteral
.Lfunc_end22:
	.cfi_endproc

	.globl	_ZN7Visitor5visitEP10Expression
	.align	16, 0x90
	.type	_ZN7Visitor5visitEP10Expression,@function
_ZN7Visitor5visitEP10Expression:        # @_ZN7Visitor5visitEP10Expression
	.cfi_startproc
.Lfunc_begin23:
	.loc	1 172 0                 # Visitor.cpp:172:0
# BB#0:
	.loc	1 173 0 prologue_end    # Visitor.cpp:173:0
	pushq	%rbx
.Ltmp386:
	.cfi_def_cfa_offset 16
.Ltmp387:
	.cfi_offset %rbx, -16
	#DEBUG_VALUE: visit:this <- RDI
	#DEBUG_VALUE: visit:expr <- RSI
	movq	XML_fp@GOTPCREL(%rip), %rbx
	movq	(%rbx), %rcx
	leaq	.L.str31(%rip), %rdi
.Ltmp388:
	movl	$8, %esi
.Ltmp389:
	movl	$1, %edx
	callq	fwrite@PLT
	.loc	1 174 0                 # Visitor.cpp:174:0
	movq	(%rbx), %rcx
	leaq	.L.str26(%rip), %rdi
	movl	$8, %esi
	movl	$1, %edx
	popq	%rbx
	jmp	fwrite@PLT              # TAILCALL
.Ltmp390:
.Ltmp391:
	.size	_ZN7Visitor5visitEP10Expression, .Ltmp391-_ZN7Visitor5visitEP10Expression
.Lfunc_end23:
	.cfi_endproc

	.globl	_ZN7Visitor5visitEP10BinaryExpr
	.align	16, 0x90
	.type	_ZN7Visitor5visitEP10BinaryExpr,@function
_ZN7Visitor5visitEP10BinaryExpr:        # @_ZN7Visitor5visitEP10BinaryExpr
	.cfi_startproc
.Lfunc_begin24:
	.loc	1 177 0                 # Visitor.cpp:177:0
# BB#0:
	.loc	1 178 0 prologue_end    # Visitor.cpp:178:0
	pushq	%rbx
.Ltmp394:
	.cfi_def_cfa_offset 16
.Ltmp395:
	.cfi_offset %rbx, -16
	#DEBUG_VALUE: visit:this <- RDI
	#DEBUG_VALUE: visit:expr <- RSI
	movq	XML_fp@GOTPCREL(%rip), %rbx
	movq	(%rbx), %rcx
	leaq	.L.str31(%rip), %rdi
.Ltmp396:
	movl	$8, %esi
.Ltmp397:
	movl	$1, %edx
	callq	fwrite@PLT
	.loc	1 179 0                 # Visitor.cpp:179:0
	movq	(%rbx), %rcx
	leaq	.L.str26(%rip), %rdi
	movl	$8, %esi
	movl	$1, %edx
	popq	%rbx
	jmp	fwrite@PLT              # TAILCALL
.Ltmp398:
.Ltmp399:
	.size	_ZN7Visitor5visitEP10BinaryExpr, .Ltmp399-_ZN7Visitor5visitEP10BinaryExpr
.Lfunc_end24:
	.cfi_endproc

	.section	.text.startup,"ax",@progbits
	.align	16, 0x90
	.type	_GLOBAL__I_a,@function
_GLOBAL__I_a:                           # @_GLOBAL__I_a
	.cfi_startproc
.Lfunc_begin25:
	.loc	1 35 0                  # Visitor.cpp:35:0
# BB#0:
	.loc	4 74 0 prologue_end     # /usr/bin/../lib/gcc/x86_64-linux-gnu/4.8/../../../../include/c++/4.8/iostream:74:0
	pushq	%rbx
.Ltmp402:
	.cfi_def_cfa_offset 16
.Ltmp403:
	.cfi_offset %rbx, -16
	leaq	_ZStL8__ioinit(%rip), %rbx
	movq	%rbx, %rdi
	callq	_ZNSt8ios_base4InitC1Ev@PLT
	movq	_ZNSt8ios_base4InitD1Ev@GOTPCREL(%rip), %rdi
	movq	__dso_handle@GOTPCREL(%rip), %rdx
	movq	%rbx, %rsi
	popq	%rbx
	jmp	__cxa_atexit@PLT        # TAILCALL
.Ltmp404:
.Ltmp405:
	.size	_GLOBAL__I_a, .Ltmp405-_GLOBAL__I_a
.Lfunc_end25:
	.cfi_endproc

	.type	_ZStL8__ioinit,@object  # @_ZStL8__ioinit
	.local	_ZStL8__ioinit
	.comm	_ZStL8__ioinit,1,1
	.type	.L.str,@object          # @.str
	.section	.rodata.str1.1,"aMS",@progbits,1
.L.str:
	.asciz	"<program>\n"
	.size	.L.str, 11

	.type	.L.str1,@object         # @.str1
.L.str1:
	.asciz	"</program>\n"
	.size	.L.str1, 12

	.type	.L.str2,@object         # @.str2
.L.str2:
	.asciz	"<node>\n"
	.size	.L.str2, 8

	.type	.L.str3,@object         # @.str3
.L.str3:
	.asciz	"</node>\n"
	.size	.L.str3, 9

	.type	.L.str4,@object         # @.str4
.L.str4:
	.asciz	"<location>\n"
	.size	.L.str4, 12

	.type	.L.str5,@object         # @.str5
.L.str5:
	.asciz	"</location>\n"
	.size	.L.str5, 13

	.type	.L.str6,@object         # @.str6
.L.str6:
	.asciz	"<BaseDeclaration>\n"
	.size	.L.str6, 19

	.type	.L.str7,@object         # @.str7
.L.str7:
	.asciz	"<location id=\"%s\" />\n"
	.size	.L.str7, 22

	.type	.L.str8,@object         # @.str8
.L.str8:
	.asciz	"<position>\n"
	.size	.L.str8, 12

	.type	.L.str9,@object         # @.str9
.L.str9:
	.asciz	"</position>\n"
	.size	.L.str9, 13

	.type	.L.str10,@object        # @.str10
.L.str10:
	.asciz	"<integer value=\"%d\" />\n"
	.size	.L.str10, 24

	.type	.L.str11,@object        # @.str11
.L.str11:
	.asciz	"<callout function=%s>\n"
	.size	.L.str11, 23

	.type	.L.str12,@object        # @.str12
.L.str12:
	.asciz	"</callout>\n"
	.size	.L.str12, 12

	.type	.L.str13,@object        # @.str13
.L.str13:
	.asciz	"<assignment>\n"
	.size	.L.str13, 14

	.type	.L.str14,@object        # @.str14
.L.str14:
	.asciz	"</assignment>\n"
	.size	.L.str14, 15

	.type	.L.str15,@object        # @.str15
.L.str15:
	.asciz	"<field_declarations count=\"%lu\">\n"
	.size	.L.str15, 34

	.type	.L.str16,@object        # @.str16
.L.str16:
	.asciz	"</field_declarations>\n"
	.size	.L.str16, 23

	.type	.L.str17,@object        # @.str17
.L.str17:
	.asciz	"<statement_declarations count=\"%lu\">\n"
	.size	.L.str17, 38

	.type	.L.str18,@object        # @.str18
.L.str18:
	.asciz	"</statement_declarations>\n"
	.size	.L.str18, 27

	.type	.L.str19,@object        # @.str19
.L.str19:
	.asciz	"<argument>\n"
	.size	.L.str19, 12

	.type	.L.str20,@object        # @.str20
.L.str20:
	.asciz	"</argument>\n"
	.size	.L.str20, 13

	.type	.L.str21,@object        # @.str21
.L.str21:
	.asciz	"<unary_expression type=\"x\"\n"
	.size	.L.str21, 28

	.type	.L.str22,@object        # @.str22
.L.str22:
	.asciz	"<unary_expression>\n"
	.size	.L.str22, 20

	.type	.L.str23,@object        # @.str23
.L.str23:
	.asciz	"<binary_expression type=\"x\"\n"
	.size	.L.str23, 29

	.type	.L.str24,@object        # @.str24
.L.str24:
	.asciz	"<binary_expression>\n"
	.size	.L.str24, 21

	.type	.L.str25,@object        # @.str25
.L.str25:
	.asciz	"<expr>\n"
	.size	.L.str25, 8

	.type	.L.str26,@object        # @.str26
.L.str26:
	.asciz	"</expr>\n"
	.size	.L.str26, 9

	.type	.L.str27,@object        # @.str27
.L.str27:
	.asciz	"boolean value=\"true\"\n"
	.size	.L.str27, 22

	.type	.L.str28,@object        # @.str28
.L.str28:
	.asciz	"boolean value=\"false\"\n"
	.size	.L.str28, 23

	.type	.L.str29,@object        # @.str29
.L.str29:
	.asciz	"<character value='%s'' />\n"
	.size	.L.str29, 27

	.type	.L.str30,@object        # @.str30
.L.str30:
	.asciz	"<string value=%s />\n"
	.size	.L.str30, 21

	.type	.L.str31,@object        # @.str31
.L.str31:
	.asciz	"<expr2>\n"
	.size	.L.str31, 9

	.type	_ZTV7Visitor,@object    # @_ZTV7Visitor
	.section	.data.rel.ro,"aw",@progbits
	.globl	_ZTV7Visitor
	.align	16
_ZTV7Visitor:
	.quad	0
	.quad	_ZTI7Visitor
	.quad	_ZN7VisitorD2Ev
	.quad	_ZN7VisitorD0Ev
	.size	_ZTV7Visitor, 32

	.type	_ZTS7Visitor,@object    # @_ZTS7Visitor
	.section	.rodata,"a",@progbits
	.globl	_ZTS7Visitor
_ZTS7Visitor:
	.asciz	"7Visitor"
	.size	_ZTS7Visitor, 9

	.type	_ZTI7Visitor,@object    # @_ZTI7Visitor
	.section	.data.rel.ro,"aw",@progbits
	.globl	_ZTI7Visitor
	.align	8
_ZTI7Visitor:
	.quad	_ZTVN10__cxxabiv117__class_type_infoE+16
	.quad	_ZTS7Visitor
	.size	_ZTI7Visitor, 16

	.section	.init_array,"aw",@init_array
	.align	8
	.quad	_GLOBAL__I_a
	.section	.text.startup,"ax",@progbits
.Ldebug_end1:
	.text
.Ldebug_end2: